; Function Attrs: nounwind sspstrong uwtable
define internal range(i64 1, 16) i64 @time_wday(i64 noundef %0) #1 {
  %2 = tail call ptr @rb_check_typeddata(i64 noundef %0, ptr noundef nonnull @time_data_type) #21
  %3 = getelementptr inbounds nuw i8, ptr %2, i64 40
  %4 = load i64, ptr %3, align 8
  %5 = and i64 %4, 61572651155456
  %.not.i = icmp eq i64 %5, 26388279066624
  br i1 %.not.i, label %6, label %get_timeval.exit

6:                                                ; preds = %1
  %7 = load i64, ptr @rb_eTypeError, align 8, !tbaa !11
  %8 = tail call i64 @rb_obj_class(i64 noundef %0) #21
  tail call void (i64, ptr, ...) @rb_raise(i64 noundef %7, ptr noundef nonnull @.str.92, i64 noundef %8) #22
  unreachable

get_timeval.exit:                                 ; preds = %1
  %9 = and i64 %4, 70368744177664
  %10 = icmp eq i64 %9, 0
  br i1 %10, label %11, label %time_get_tm.exit

11:                                               ; preds = %get_timeval.exit
  %12 = lshr i64 %4, 43
  %13 = trunc nuw nsw i64 %12 to i32
  %14 = and i32 %13, 7
  switch i32 %14, label %19 [
    i32 1, label %15
    i32 2, label %17
  ]

15:                                               ; preds = %11
  %16 = tail call i64 @time_gmtime(i64 noundef %0)
  br label %time_get_tm.exit

17:                                               ; preds = %11
  %18 = tail call fastcc i64 @time_fixoff(i64 noundef %0)
  br label %time_get_tm.exit

19:                                               ; preds = %11
  %20 = tail call fastcc i64 @time_localtime(i64 noundef %0)
  br label %time_get_tm.exit

time_get_tm.exit:                                 ; preds = %19, %17, %15, %get_timeval.exit
  %21 = load i64, ptr %3, align 8
  %22 = and i64 %21, 1924145348608
  %.not = icmp eq i64 %22, 1924145348608
  br i1 %.not, label %23, label %force_make_tm.exit

23:                                               ; preds = %time_get_tm.exit
  %24 = getelementptr inbounds nuw i8, ptr %2, i64 32
  %25 = load i64, ptr %24, align 8, !tbaa !29
  %26 = icmp eq i64 %25, 4
  %27 = load i64, ptr @str_empty, align 8
  %.not.i7 = icmp eq i64 %25, %27
  %or.cond.i = select i1 %26, i1 true, i1 %.not.i7
  %28 = load i64, ptr @str_utc, align 8
  %.not8.i = icmp eq i64 %25, %28
  %or.cond10.i = select i1 %or.cond.i, i1 true, i1 %.not8.i
  br i1 %or.cond10.i, label %31, label %29

29:                                               ; preds = %23
  %30 = tail call fastcc i32 @zone_localtime(i64 noundef %25, i64 noundef %0)
  %.not9.i = icmp eq i32 %30, 0
  br i1 %.not9.i, label %._crit_edge, label %force_make_tm.exit

._crit_edge:                                      ; preds = %29
  %.pre = load i64, ptr %3, align 8
  br label %31

31:                                               ; preds = %._crit_edge, %23
  %32 = phi i64 [ %.pre, %._crit_edge ], [ %21, %23 ]
  %33 = and i64 %32, -70368744177665
  store i64 %33, ptr %3, align 8
  %34 = lshr i64 %32, 43
  %35 = trunc nuw nsw i64 %34 to i32
  %36 = and i32 %35, 7
  switch i32 %36, label %41 [
    i32 1, label %37
    i32 2, label %39
  ]

37:                                               ; preds = %31
  %38 = tail call i64 @time_gmtime(i64 noundef %0)
  br label %force_make_tm.exit

39:                                               ; preds = %31
  %40 = tail call fastcc i64 @time_fixoff(i64 noundef %0)
  br label %force_make_tm.exit

41:                                               ; preds = %31
  %42 = tail call fastcc i64 @time_localtime(i64 noundef %0)
  br label %force_make_tm.exit

force_make_tm.exit:                               ; preds = %41, %39, %37, %29, %time_get_tm.exit
  %43 = load i64, ptr %3, align 8
  %44 = lshr i64 %43, 37
  %45 = and i64 %44, 14
  %46 = or disjoint i64 %45, 1
  ret i64 %46
}